target datalayout = "e-m:e-p270:32:32-p271:32:32-p272:64:64-i64:64-i128:128-f80:128-n8:16:32:64-S128"
target triple = "x86_64-pc-linux-gnu"

%"class.llvm::StringRef" = type { ptr, i64 }
%"class.std::__cxx11::basic_string" = type { %"struct.std::__cxx11::basic_string<char>::_Alloc_hider", i64, %union.anon }
%"struct.std::__cxx11::basic_string<char>::_Alloc_hider" = type { ptr }
%union.anon = type { i64, [8 x i8] }
%"struct.std::pair.55" = type { i32, i32 }
%"class.llvm::BitVector::reference" = type <{ ptr, i32, [4 x i8] }>
%"class.llvm::CGIOperandList" = type <{ ptr, i32, [4 x i8], %"class.std::vector", %"class.llvm::StringMap", i8, i8, i8, [5 x i8] }>
%"class.std::vector" = type { %"struct.std::_Vector_base" }
%"struct.std::_Vector_base" = type { %"struct.std::_Vector_base<llvm::CGIOperandList::OperandInfo, std::allocator<llvm::CGIOperandList::OperandInfo>>::_Vector_impl" }
%"struct.std::_Vector_base<llvm::CGIOperandList::OperandInfo, std::allocator<llvm::CGIOperandList::OperandInfo>>::_Vector_impl" = type { %"struct.std::_Vector_base<llvm::CGIOperandList::OperandInfo, std::allocator<llvm::CGIOperandList::OperandInfo>>::_Vector_impl_data" }
%"struct.std::_Vector_base<llvm::CGIOperandList::OperandInfo, std::allocator<llvm::CGIOperandList::OperandInfo>>::_Vector_impl_data" = type { ptr, ptr, ptr }
%"class.llvm::StringMap" = type { %"class.llvm::StringMapImpl" }
%"class.llvm::StringMapImpl" = type { ptr, i32, i32, i32, i32 }
%"struct.llvm::CGIOperandList::OperandInfo" = type { ptr, %"class.std::__cxx11::basic_string", %"class.std::vector.40", %"class.std::__cxx11::basic_string", %"class.std::vector.40", %"class.std::__cxx11::basic_string", i32, i32, %"class.llvm::BitVector", ptr, %"class.std::vector.50" }
%"class.std::vector.40" = type { %"struct.std::_Vector_base.41" }
%"struct.std::_Vector_base.41" = type { %"struct.std::_Vector_base<std::__cxx11::basic_string<char>, std::allocator<std::__cxx11::basic_string<char>>>::_Vector_impl" }
%"struct.std::_Vector_base<std::__cxx11::basic_string<char>, std::allocator<std::__cxx11::basic_string<char>>>::_Vector_impl" = type { %"struct.std::_Vector_base<std::__cxx11::basic_string<char>, std::allocator<std::__cxx11::basic_string<char>>>::_Vector_impl_data" }
%"struct.std::_Vector_base<std::__cxx11::basic_string<char>, std::allocator<std::__cxx11::basic_string<char>>>::_Vector_impl_data" = type { ptr, ptr, ptr }
%"class.llvm::BitVector" = type <{ %"class.llvm::SmallVector.45", i32, [4 x i8] }>
%"class.llvm::SmallVector.45" = type { %"class.llvm::SmallVectorImpl.46", %"struct.llvm::SmallVectorStorage.49" }
%"class.llvm::SmallVectorImpl.46" = type { %"class.llvm::SmallVectorTemplateBase.47" }
%"class.llvm::SmallVectorTemplateBase.47" = type { %"class.llvm::SmallVectorTemplateCommon.48" }
%"class.llvm::SmallVectorTemplateCommon.48" = type { %"class.llvm::SmallVectorBase" }
%"class.llvm::SmallVectorBase" = type { ptr, i32, i32 }
%"struct.llvm::SmallVectorStorage.49" = type { [48 x i8] }
%"class.std::vector.50" = type { %"struct.std::_Vector_base.51" }
%"struct.std::_Vector_base.51" = type { %"struct.std::_Vector_base<llvm::CGIOperandList::ConstraintInfo, std::allocator<llvm::CGIOperandList::ConstraintInfo>>::_Vector_impl" }
%"struct.std::_Vector_base<llvm::CGIOperandList::ConstraintInfo, std::allocator<llvm::CGIOperandList::ConstraintInfo>>::_Vector_impl" = type { %"struct.std::_Vector_base<llvm::CGIOperandList::ConstraintInfo, std::allocator<llvm::CGIOperandList::ConstraintInfo>>::_Vector_impl_data" }
%"struct.std::_Vector_base<llvm::CGIOperandList::ConstraintInfo, std::allocator<llvm::CGIOperandList::ConstraintInfo>>::_Vector_impl_data" = type { ptr, ptr, ptr }
%"struct.std::pair.57" = type { %"class.llvm::StringRef", %"class.llvm::StringRef" }
%"class.std::tuple" = type { %"struct.std::_Tuple_impl" }
%"struct.std::_Tuple_impl" = type { %"struct.std::_Tuple_impl.59", %"struct.std::_Head_base.60" }
%"struct.std::_Tuple_impl.59" = type { %"struct.std::_Head_base" }
%"struct.std::_Head_base" = type { ptr }
%"struct.std::_Head_base.60" = type { ptr }

@.str.51 = private unnamed_addr constant [4 x i8] c" ,\09\00", align 1

; Function Attrs: mustprogress nounwind uwtable
define linkonce_odr hidden void @_ZNSt10_Head_baseILm1ERN4llvm9StringRefELb0EEC2ES2_(ptr noundef nonnull align 8 dereferenceable(8) %0, ptr noundef nonnull align 8 dereferenceable(16) %1) unnamed_addr #0 comdat align 2 {
  %3 = alloca ptr, align 8
  %4 = alloca ptr, align 8
  store ptr %0, ptr %3, align 8
  store ptr %1, ptr %4, align 8
  %5 = load ptr, ptr %3, align 8
  %6 = getelementptr inbounds nuw %"struct.std::_Head_base", ptr %5, i32 0, i32 0
  %7 = load ptr, ptr %4, align 8
  store ptr %7, ptr %6, align 8
  ret void
}

; Function Attrs: mustprogress nounwind uwtable
define linkonce_odr hidden noundef ptr @_ZN4llvm25SmallVectorTemplateCommonImvE5beginEv(ptr noundef nonnull align 8 dereferenceable(16) %0) #0 comdat align 2 {
  %2 = alloca ptr, align 8
  store ptr %0, ptr %2, align 8
  %3 = load ptr, ptr %2, align 8
  %4 = getelementptr inbounds nuw %"class.llvm::SmallVectorBase", ptr %3, i32 0, i32 0
  %5 = load ptr, ptr %4, align 8
  ret ptr %5
}

; Function Attrs: mustprogress nounwind uwtable
define linkonce_odr hidden void @_ZNSt10_Head_baseILm0ERN4llvm9StringRefELb0EEC2ES2_(ptr noundef nonnull align 8 dereferenceable(8) %0, ptr noundef nonnull align 8 dereferenceable(16) %1) unnamed_addr #0 comdat align 2 {
  %3 = alloca ptr, align 8
  %4 = alloca ptr, align 8
  store ptr %0, ptr %3, align 8
  store ptr %1, ptr %4, align 8
  %5 = load ptr, ptr %3, align 8
  %6 = getelementptr inbounds nuw %"struct.std::_Head_base.60", ptr %5, i32 0, i32 0
  %7 = load ptr, ptr %4, align 8
  store ptr %7, ptr %6, align 8
  ret void
}

; Function Attrs: mustprogress nounwind uwtable
define linkonce_odr hidden void @_ZNSt11_Tuple_implILm1EJRN4llvm9StringRefEEEC2ES2_(ptr noundef nonnull align 8 dereferenceable(8) %0, ptr noundef nonnull align 8 dereferenceable(16) %1) unnamed_addr #0 comdat align 2 {
  %3 = alloca ptr, align 8
  %4 = alloca ptr, align 8
  store ptr %0, ptr %3, align 8
  store ptr %1, ptr %4, align 8
  %5 = load ptr, ptr %3, align 8
  %6 = load ptr, ptr %4, align 8
  call void @_ZNSt10_Head_baseILm1ERN4llvm9StringRefELb0EEC2ES2_(ptr noundef nonnull align 8 dereferenceable(8) %5, ptr noundef nonnull align 8 dereferenceable(16) %6)
  ret void
}

; Function Attrs: mustprogress nounwind uwtable
define linkonce_odr hidden noundef nonnull align 8 dereferenceable(8) ptr @_ZN4llvm25SmallVectorTemplateCommonImvEixEm(ptr noundef nonnull align 8 dereferenceable(16) %0, i64 noundef %1) #0 comdat align 2 {
  %3 = alloca ptr, align 8
  %4 = alloca i64, align 8
  store ptr %0, ptr %3, align 8
  store i64 %1, ptr %4, align 8
  %5 = load ptr, ptr %3, align 8
  %6 = call noundef ptr @_ZN4llvm25SmallVectorTemplateCommonImvE5beginEv(ptr noundef nonnull align 8 dereferenceable(16) %5)
  %7 = load i64, ptr %4, align 8
  %8 = getelementptr inbounds i64, ptr %6, i64 %7
  ret ptr %8
}

; Function Attrs: mustprogress nounwind uwtable
define linkonce_odr hidden noundef nonnull align 8 dereferenceable(16) ptr @_ZNSt10_Head_baseILm1ERN4llvm9StringRefELb0EE7_M_headERS3_(ptr noundef nonnull align 8 dereferenceable(8) %0) #0 comdat align 2 {
  %2 = alloca ptr, align 8
  store ptr %0, ptr %2, align 8
  %3 = load ptr, ptr %2, align 8
  %4 = getelementptr inbounds nuw %"struct.std::_Head_base", ptr %3, i32 0, i32 0
  %5 = load ptr, ptr %4, align 8
  ret ptr %5
}

; Function Attrs: mustprogress nounwind uwtable
define linkonce_odr hidden noundef nonnull align 8 dereferenceable(16) ptr @_ZNSt10_Head_baseILm0ERN4llvm9StringRefELb0EE7_M_headERS3_(ptr noundef nonnull align 8 dereferenceable(8) %0) #0 comdat align 2 {
  %2 = alloca ptr, align 8
  store ptr %0, ptr %2, align 8
  %3 = load ptr, ptr %2, align 8
  %4 = getelementptr inbounds nuw %"struct.std::_Head_base.60", ptr %3, i32 0, i32 0
  %5 = load ptr, ptr %4, align 8
  ret ptr %5
}

; Function Attrs: mustprogress nounwind uwtable
define linkonce_odr hidden void @_ZNSt11_Tuple_implILm0EJRN4llvm9StringRefES2_EEC2ES2_S2_(ptr noundef nonnull align 8 dereferenceable(16) %0, ptr noundef nonnull align 8 dereferenceable(16) %1, ptr noundef nonnull align 8 dereferenceable(16) %2) unnamed_addr #0 comdat align 2 {
  %4 = alloca ptr, align 8
  %5 = alloca ptr, align 8
  %6 = alloca ptr, align 8
  store ptr %0, ptr %4, align 8
  store ptr %1, ptr %5, align 8
  store ptr %2, ptr %6, align 8
  %7 = load ptr, ptr %4, align 8
  %8 = load ptr, ptr %6, align 8
  call void @_ZNSt11_Tuple_implILm1EJRN4llvm9StringRefEEEC2ES2_(ptr noundef nonnull align 8 dereferenceable(8) %7, ptr noundef nonnull align 8 dereferenceable(16) %8)
  %9 = getelementptr inbounds i8, ptr %7, i64 8
  %10 = load ptr, ptr %5, align 8
  call void @_ZNSt10_Head_baseILm0ERN4llvm9StringRefELb0EEC2ES2_(ptr noundef nonnull align 8 dereferenceable(8) %9, ptr noundef nonnull align 8 dereferenceable(16) %10)
  ret void
}

; Function Attrs: mustprogress nounwind uwtable
define linkonce_odr hidden void @_ZN4llvm9BitVector9referenceC2ERS0_j(ptr noundef nonnull align 8 dereferenceable(12) %0, ptr noundef nonnull align 8 dereferenceable(68) %1, i32 noundef %2) unnamed_addr #0 comdat align 2 {
  %4 = alloca ptr, align 8
  %5 = alloca ptr, align 8
  %6 = alloca i32, align 4
  store ptr %0, ptr %4, align 8
  store ptr %1, ptr %5, align 8
  store i32 %2, ptr %6, align 4
  %7 = load ptr, ptr %4, align 8
  %8 = load ptr, ptr %5, align 8
  %9 = getelementptr inbounds nuw %"class.llvm::BitVector", ptr %8, i32 0, i32 0
  %10 = load i32, ptr %6, align 4
  %11 = udiv i32 %10, 64
  %12 = zext i32 %11 to i64
  %13 = call noundef nonnull align 8 dereferenceable(8) ptr @_ZN4llvm25SmallVectorTemplateCommonImvEixEm(ptr noundef nonnull align 8 dereferenceable(16) %9, i64 noundef %12)
  %14 = getelementptr inbounds nuw %"class.llvm::BitVector::reference", ptr %7, i32 0, i32 0
  store ptr %13, ptr %14, align 8
  %15 = load i32, ptr %6, align 4
  %16 = urem i32 %15, 64
  %17 = getelementptr inbounds nuw %"class.llvm::BitVector::reference", ptr %7, i32 0, i32 1
  store i32 %16, ptr %17, align 8
  ret void
}

; Function Attrs: mustprogress nounwind uwtable
define linkonce_odr hidden noundef nonnull align 8 dereferenceable(16) ptr @_ZNSt11_Tuple_implILm1EJRN4llvm9StringRefEEE7_M_headERS3_(ptr noundef nonnull align 8 dereferenceable(8) %0) #0 comdat align 2 {
  %2 = alloca ptr, align 8
  store ptr %0, ptr %2, align 8
  %3 = load ptr, ptr %2, align 8
  %4 = call noundef nonnull align 8 dereferenceable(16) ptr @_ZNSt10_Head_baseILm1ERN4llvm9StringRefELb0EE7_M_headERS3_(ptr noundef nonnull align 8 dereferenceable(8) %3) #9
  ret ptr %4
}

; Function Attrs: mustprogress nounwind uwtable
define linkonce_odr hidden noundef nonnull align 8 dereferenceable(8) ptr @_ZNSt11_Tuple_implILm0EJRN4llvm9StringRefES2_EE7_M_tailERS3_(ptr noundef nonnull align 8 dereferenceable(16) %0) #0 comdat align 2 {
  %2 = alloca ptr, align 8
  store ptr %0, ptr %2, align 8
  %3 = load ptr, ptr %2, align 8
  ret ptr %3
}

; Function Attrs: mustprogress nounwind uwtable
define linkonce_odr hidden noundef nonnull align 8 dereferenceable(16) ptr @_ZNSt11_Tuple_implILm0EJRN4llvm9StringRefES2_EE7_M_headERS3_(ptr noundef nonnull align 8 dereferenceable(16) %0) #0 comdat align 2 {
  %2 = alloca ptr, align 8
  store ptr %0, ptr %2, align 8
  %3 = load ptr, ptr %2, align 8
  %4 = getelementptr inbounds i8, ptr %3, i64 8
  %5 = call noundef nonnull align 8 dereferenceable(16) ptr @_ZNSt10_Head_baseILm0ERN4llvm9StringRefELb0EE7_M_headERS3_(ptr noundef nonnull align 8 dereferenceable(8) %4) #9
  ret ptr %5
}

; Function Attrs: mustprogress nounwind uwtable
define linkonce_odr hidden void @_ZNSt5tupleIJRN4llvm9StringRefES2_EEC2ILb1ETnNSt9enable_ifIXclsr4_TCCIXT_EEE29__is_implicitly_constructibleIS2_S2_EEEbE4typeELb1EEES2_S2_(ptr noundef nonnull align 8 dereferenceable(16) %0, ptr noundef nonnull align 8 dereferenceable(16) %1, ptr noundef nonnull align 8 dereferenceable(16) %2) unnamed_addr #0 comdat align 2 {
  %4 = alloca ptr, align 8
  %5 = alloca ptr, align 8
  %6 = alloca ptr, align 8
  store ptr %0, ptr %4, align 8
  store ptr %1, ptr %5, align 8
  store ptr %2, ptr %6, align 8
  %7 = load ptr, ptr %4, align 8
  %8 = load ptr, ptr %5, align 8
  %9 = load ptr, ptr %6, align 8
  call void @_ZNSt11_Tuple_implILm0EJRN4llvm9StringRefES2_EEC2ES2_S2_(ptr noundef nonnull align 8 dereferenceable(16) %7, ptr noundef nonnull align 8 dereferenceable(16) %8, ptr noundef nonnull align 8 dereferenceable(16) %9)
  ret void
}

; Function Attrs: mustprogress nounwind uwtable
define linkonce_odr hidden noundef i64 @_ZNSt11char_traitsIcE6lengthEPKc(ptr noundef %0) #0 comdat align 2 {
  %2 = alloca ptr, align 8
  store ptr %0, ptr %2, align 8
  %3 = load ptr, ptr %2, align 8
  %4 = call i64 @strlen(ptr noundef %3) #9
  ret i64 %4
}

; Function Attrs: mustprogress nounwind uwtable
define linkonce_odr hidden noundef nonnull align 8 dereferenceable(12) ptr @_ZN4llvm9BitVector9referenceaSEb(ptr noundef nonnull align 8 dereferenceable(12) %0, i1 noundef zeroext %1) #0 comdat align 2 {
  %3 = alloca ptr, align 8
  %4 = alloca i8, align 1
  store ptr %0, ptr %3, align 8
  %5 = zext i1 %1 to i8
  store i8 %5, ptr %4, align 1
  %6 = load ptr, ptr %3, align 8
  %7 = load i8, ptr %4, align 1
  %8 = trunc i8 %7 to i1
  br i1 %8, label %9, label %18

9:                                                ; preds = %2
  %10 = getelementptr inbounds nuw %"class.llvm::BitVector::reference", ptr %6, i32 0, i32 1
  %11 = load i32, ptr %10, align 8
  %12 = zext i32 %11 to i64
  %13 = shl i64 1, %12
  %14 = getelementptr inbounds nuw %"class.llvm::BitVector::reference", ptr %6, i32 0, i32 0
  %15 = load ptr, ptr %14, align 8
  %16 = load i64, ptr %15, align 8
  %17 = or i64 %16, %13
  store i64 %17, ptr %15, align 8
  br label %28

18:                                               ; preds = %2
  %19 = getelementptr inbounds nuw %"class.llvm::BitVector::reference", ptr %6, i32 0, i32 1
  %20 = load i32, ptr %19, align 8
  %21 = zext i32 %20 to i64
  %22 = shl i64 1, %21
  %23 = xor i64 %22, -1
  %24 = getelementptr inbounds nuw %"class.llvm::BitVector::reference", ptr %6, i32 0, i32 0
  %25 = load ptr, ptr %24, align 8
  %26 = load i64, ptr %25, align 8
  %27 = and i64 %26, %23
  store i64 %27, ptr %25, align 8
  br label %28

28:                                               ; preds = %18, %9
  ret ptr %6
}

; Function Attrs: mustprogress nounwind uwtable
define linkonce_odr hidden { ptr, i32 } @_ZN4llvm9BitVectorixEj(ptr noundef nonnull align 8 dereferenceable(68) %0, i32 noundef %1) #0 comdat align 2 {
  %3 = alloca %"class.llvm::BitVector::reference", align 8
  %4 = alloca ptr, align 8
  %5 = alloca i32, align 4
  store ptr %0, ptr %4, align 8
  store i32 %1, ptr %5, align 4
  %6 = load ptr, ptr %4, align 8
  %7 = load i32, ptr %5, align 4
  call void @_ZN4llvm9BitVector9referenceC2ERS0_j(ptr noundef nonnull align 8 dereferenceable(12) %3, ptr noundef nonnull align 8 dereferenceable(68) %6, i32 noundef %7)
  %8 = load { ptr, i32 }, ptr %3, align 8
  ret { ptr, i32 } %8
}

; Function Attrs: mustprogress nounwind uwtable
define linkonce_odr hidden noundef nonnull align 8 dereferenceable(264) ptr @_ZNSt6vectorIN4llvm14CGIOperandList11OperandInfoESaIS2_EEixEm(ptr noundef nonnull align 8 dereferenceable(24) %0, i64 noundef %1) #0 comdat align 2 {
  %3 = alloca ptr, align 8
  %4 = alloca i64, align 8
  store ptr %0, ptr %3, align 8
  store i64 %1, ptr %4, align 8
  %5 = load ptr, ptr %3, align 8
  %6 = getelementptr inbounds nuw %"struct.std::_Vector_base", ptr %5, i32 0, i32 0
  %7 = getelementptr inbounds nuw %"struct.std::_Vector_base<llvm::CGIOperandList::OperandInfo, std::allocator<llvm::CGIOperandList::OperandInfo>>::_Vector_impl_data", ptr %6, i32 0, i32 0
  %8 = load ptr, ptr %7, align 8
  %9 = load i64, ptr %4, align 8
  %10 = getelementptr inbounds %"struct.llvm::CGIOperandList::OperandInfo", ptr %8, i64 %9
  ret ptr %10
}

; Function Attrs: mustprogress nounwind uwtable
define linkonce_odr hidden noundef zeroext i1 @_ZNK4llvm9StringRef5emptyEv(ptr noundef nonnull align 8 dereferenceable(16) %0) #0 comdat align 2 {
  %2 = alloca ptr, align 8
  store ptr %0, ptr %2, align 8
  %3 = load ptr, ptr %2, align 8
  %4 = getelementptr inbounds nuw %"class.llvm::StringRef", ptr %3, i32 0, i32 1
  %5 = load i64, ptr %4, align 8
  %6 = icmp eq i64 %5, 0
  ret i1 %6
}

; Function Attrs: mustprogress nounwind uwtable
define linkonce_odr hidden noundef nonnull align 8 dereferenceable(16) ptr @_ZNSt5tupleIJRN4llvm9StringRefES2_EEaSIS1_S1_EENSt9enable_ifIXcl12__assignableIT_T0_EEERS3_E4typeEOSt4pairIS6_S7_E(ptr noundef nonnull align 8 dereferenceable(16) %0, ptr noundef nonnull align 8 dereferenceable(32) %1) #0 comdat align 2 {
  %3 = alloca ptr, align 8
  %4 = alloca ptr, align 8
  store ptr %0, ptr %3, align 8
  store ptr %1, ptr %4, align 8
  %5 = load ptr, ptr %3, align 8
  %6 = load ptr, ptr %4, align 8
  %7 = getelementptr inbounds nuw %"struct.std::pair.57", ptr %6, i32 0, i32 0
  %8 = call noundef nonnull align 8 dereferenceable(16) ptr @_ZNSt11_Tuple_implILm0EJRN4llvm9StringRefES2_EE7_M_headERS3_(ptr noundef nonnull align 8 dereferenceable(16) %5) #9
  call void @llvm.memcpy.p0.p0.i64(ptr align 8 %8, ptr align 8 %7, i64 16, i1 false)
  %9 = load ptr, ptr %4, align 8
  %10 = getelementptr inbounds nuw %"struct.std::pair.57", ptr %9, i32 0, i32 1
  %11 = call noundef nonnull align 8 dereferenceable(8) ptr @_ZNSt11_Tuple_implILm0EJRN4llvm9StringRefES2_EE7_M_tailERS3_(ptr noundef nonnull align 8 dereferenceable(16) %5) #9
  %12 = call noundef nonnull align 8 dereferenceable(16) ptr @_ZNSt11_Tuple_implILm1EJRN4llvm9StringRefEEE7_M_headERS3_(ptr noundef nonnull align 8 dereferenceable(8) %5) #9
  call void @llvm.memcpy.p0.p0.i64(ptr align 8 %12, ptr align 8 %10, i64 16, i1 false)
  ret ptr %5
}

; Function Attrs: mustprogress nounwind uwtable
define linkonce_odr void @_ZSt3tieIJN4llvm9StringRefES1_EESt5tupleIJDpRT_EES5_(ptr dead_on_unwind noalias writable sret(%"class.std::tuple") align 8 %0, ptr noundef nonnull align 8 dereferenceable(16) %1, ptr noundef nonnull align 8 dereferenceable(16) %2) #0 comdat {
  %4 = alloca ptr, align 8
  %5 = alloca ptr, align 8
  %6 = alloca ptr, align 8
  store ptr %0, ptr %4, align 8
  store ptr %1, ptr %5, align 8
  store ptr %2, ptr %6, align 8
  %7 = load ptr, ptr %5, align 8
  %8 = load ptr, ptr %6, align 8
  call void @_ZNSt5tupleIJRN4llvm9StringRefES2_EEC2ILb1ETnNSt9enable_ifIXclsr4_TCCIXT_EEE29__is_implicitly_constructibleIS2_S2_EEEbE4typeELb1EEES2_S2_(ptr noundef nonnull align 8 dereferenceable(16) %0, ptr noundef nonnull align 8 dereferenceable(16) %7, ptr noundef nonnull align 8 dereferenceable(16) %8) #9
  ret void
}

; Function Attrs: mustprogress nounwind uwtable
define linkonce_odr hidden void @_ZN4llvm9StringRefC2EPKc(ptr noundef nonnull align 8 dereferenceable(16) %0, ptr noundef %1) unnamed_addr #0 comdat align 2 {
  %3 = alloca ptr, align 8
  %4 = alloca ptr, align 8
  store ptr %0, ptr %3, align 8
  store ptr %1, ptr %4, align 8
  %5 = load ptr, ptr %3, align 8
  %6 = getelementptr inbounds nuw %"class.llvm::StringRef", ptr %5, i32 0, i32 0
  %7 = load ptr, ptr %4, align 8
  store ptr %7, ptr %6, align 8
  %8 = getelementptr inbounds nuw %"class.llvm::StringRef", ptr %5, i32 0, i32 1
  %9 = load ptr, ptr %4, align 8
  %10 = icmp ne ptr %9, null
  br i1 %10, label %11, label %14

11:                                               ; preds = %2
  %12 = load ptr, ptr %4, align 8
  %13 = call noundef i64 @_ZNSt11char_traitsIcE6lengthEPKc(ptr noundef %12)
  br label %15

14:                                               ; preds = %2
  br label %15

15:                                               ; preds = %14, %11
  %16 = phi i64 [ %13, %11 ], [ 0, %14 ]
  store i64 %16, ptr %8, align 8
  ret void
}

; Function Attrs: mustprogress nounwind uwtable
define linkonce_odr hidden void @_ZN4llvm9StringRefC2Ev(ptr noundef nonnull align 8 dereferenceable(16) %0) unnamed_addr #0 comdat align 2 {
  %2 = alloca ptr, align 8
  store ptr %0, ptr %2, align 8
  %3 = load ptr, ptr %2, align 8
  %4 = getelementptr inbounds nuw %"class.llvm::StringRef", ptr %3, i32 0, i32 0
  store ptr null, ptr %4, align 8
  %5 = getelementptr inbounds nuw %"class.llvm::StringRef", ptr %3, i32 0, i32 1
  store i64 0, ptr %5, align 8
  ret void
}

; Function Attrs: mustprogress nounwind uwtable
define dso_local void @_ZN4llvm14CGIOperandList22ProcessDisableEncodingENS_9StringRefE(ptr noundef nonnull align 8 dereferenceable(67) %0, ptr %1, i64 %2) #0 align 2 {
  %4 = alloca %"class.llvm::StringRef", align 8
  %5 = alloca ptr, align 8
  %6 = alloca %"class.llvm::StringRef", align 8
  %7 = alloca %"struct.std::pair.57", align 8
  %8 = alloca %"class.llvm::StringRef", align 8
  %9 = alloca %"class.llvm::StringRef", align 8
  %10 = alloca %"class.std::tuple", align 8
  %11 = alloca %"struct.std::pair.55", align 4
  %12 = alloca %"class.llvm::StringRef", align 8
  %13 = alloca %"class.llvm::BitVector::reference", align 8
  %14 = alloca { ptr, i32 }, align 8
  %15 = getelementptr inbounds nuw { ptr, i64 }, ptr %4, i32 0, i32 0
  store ptr %1, ptr %15, align 8
  %16 = getelementptr inbounds nuw { ptr, i64 }, ptr %4, i32 0, i32 1
  store i64 %2, ptr %16, align 8
  store ptr %0, ptr %5, align 8
  %17 = load ptr, ptr %5, align 8
  br label %18

18:                                               ; preds = %30, %3
  call void @_ZN4llvm9StringRefC2Ev(ptr noundef nonnull align 8 dereferenceable(16) %6) #9
  call void @llvm.memcpy.p0.p0.i64(ptr align 8 %8, ptr align 8 %4, i64 16, i1 false)
  call void @_ZN4llvm9StringRefC2EPKc(ptr noundef nonnull align 8 dereferenceable(16) %9, ptr noundef @.str.51)
  %19 = getelementptr inbounds nuw { ptr, i64 }, ptr %8, i32 0, i32 0
  %20 = load ptr, ptr %19, align 8
  %21 = getelementptr inbounds nuw { ptr, i64 }, ptr %8, i32 0, i32 1
  %22 = load i64, ptr %21, align 8
  %23 = getelementptr inbounds nuw { ptr, i64 }, ptr %9, i32 0, i32 0
  %24 = load ptr, ptr %23, align 8
  %25 = getelementptr inbounds nuw { ptr, i64 }, ptr %9, i32 0, i32 1
  %26 = load i64, ptr %25, align 8
  call void @_ZN4llvm8getTokenENS_9StringRefES0_(ptr dead_on_unwind writable sret(%"struct.std::pair.57") align 8 %7, ptr %20, i64 %22, ptr %24, i64 %26)
  call void @_ZSt3tieIJN4llvm9StringRefES1_EESt5tupleIJDpRT_EES5_(ptr dead_on_unwind writable sret(%"class.std::tuple") align 8 %10, ptr noundef nonnull align 8 dereferenceable(16) %6, ptr noundef nonnull align 8 dereferenceable(16) %4) #9
  %27 = call noundef nonnull align 8 dereferenceable(16) ptr @_ZNSt5tupleIJRN4llvm9StringRefES2_EEaSIS1_S1_EENSt9enable_ifIXcl12__assignableIT_T0_EEERS3_E4typeEOSt4pairIS6_S7_E(ptr noundef nonnull align 8 dereferenceable(16) %10, ptr noundef nonnull align 8 dereferenceable(32) %7) #9
  %28 = call noundef zeroext i1 @_ZNK4llvm9StringRef5emptyEv(ptr noundef nonnull align 8 dereferenceable(16) %6)
  br i1 %28, label %29, label %30

29:                                               ; preds = %18
  br label %46

30:                                               ; preds = %18
  call void @llvm.memcpy.p0.p0.i64(ptr align 8 %12, ptr align 8 %6, i64 16, i1 false)
  %31 = getelementptr inbounds nuw { ptr, i64 }, ptr %12, i32 0, i32 0
  %32 = load ptr, ptr %31, align 8
  %33 = getelementptr inbounds nuw { ptr, i64 }, ptr %12, i32 0, i32 1
  %34 = load i64, ptr %33, align 8
  %35 = call i64 @_ZN4llvm14CGIOperandList16ParseOperandNameENS_9StringRefEb(ptr noundef nonnull align 8 dereferenceable(67) %17, ptr %32, i64 %34, i1 noundef zeroext false)
  store i64 %35, ptr %11, align 4
  %36 = getelementptr inbounds nuw %"class.llvm::CGIOperandList", ptr %17, i32 0, i32 3
  %37 = getelementptr inbounds nuw %"struct.std::pair.55", ptr %11, i32 0, i32 0
  %38 = load i32, ptr %37, align 4
  %39 = zext i32 %38 to i64
  %40 = call noundef nonnull align 8 dereferenceable(264) ptr @_ZNSt6vectorIN4llvm14CGIOperandList11OperandInfoESaIS2_EEixEm(ptr noundef nonnull align 8 dereferenceable(24) %36, i64 noundef %39) #9
  %41 = getelementptr inbounds nuw %"struct.llvm::CGIOperandList::OperandInfo", ptr %40, i32 0, i32 8
  %42 = getelementptr inbounds nuw %"struct.std::pair.55", ptr %11, i32 0, i32 1
  %43 = load i32, ptr %42, align 4
  %44 = call { ptr, i32 } @_ZN4llvm9BitVectorixEj(ptr noundef nonnull align 8 dereferenceable(68) %41, i32 noundef %43)
  store { ptr, i32 } %44, ptr %14, align 8
  call void @llvm.memcpy.p0.p0.i64(ptr align 8 %13, ptr align 8 %14, i64 12, i1 false)
  %45 = call noundef nonnull align 8 dereferenceable(12) ptr @_ZN4llvm9BitVector9referenceaSEb(ptr noundef nonnull align 8 dereferenceable(12) %13, i1 noundef zeroext true)
  br label %18, !llvm.loop !10

46:                                               ; preds = %29
  ret void
}