; Function Attrs: mustprogress nounwind uwtable
define dso_local void @_ZN4llvm14CGIOperandList22ProcessDisableEncodingENS_9StringRefE(ptr noundef nonnull align 8 dereferenceable(67) %0, ptr %1, i64 %2) local_unnamed_addr #0 align 2 {
  %4 = alloca %"struct.std::pair.57", align 8
  call void @_ZN4llvm8getTokenENS_9StringRefES0_(ptr dead_on_unwind nonnull writable sret(%"struct.std::pair.57") align 8 %4, ptr %1, i64 %2, ptr nonnull @.str.51, i64 3) #15
  %.sroa.3.0..sroa_idx = getelementptr inbounds i8, ptr %4, i64 8
  %.sroa.3.0.copyload14 = load i64, ptr %.sroa.3.0..sroa_idx, align 8
  %5 = icmp eq i64 %.sroa.3.0.copyload14, 0
  br i1 %5, label %._crit_edge, label %.lr.ph

.lr.ph:                                           ; preds = %3
  %.sroa.313.0..sroa_idx = getelementptr inbounds i8, ptr %4, i64 24
  %6 = getelementptr inbounds nuw i8, ptr %4, i64 16
  %7 = getelementptr inbounds nuw i8, ptr %0, i64 16
  br label %8

8:                                                ; preds = %.lr.ph, %8
  %.sroa.3.0.copyload15 = phi i64 [ %.sroa.3.0.copyload14, %.lr.ph ], [ %.sroa.3.0.copyload, %8 ]
  %.sroa.313.0.copyload = load i64, ptr %.sroa.313.0..sroa_idx, align 8
  %.sroa.012.0.copyload = load ptr, ptr %6, align 8
  %.sroa.0.0.copyload = load ptr, ptr %4, align 8
  %9 = call i64 @_ZN4llvm14CGIOperandList16ParseOperandNameENS_9StringRefEb(ptr noundef nonnull align 8 dereferenceable(67) %0, ptr %.sroa.0.0.copyload, i64 %.sroa.3.0.copyload15, i1 noundef zeroext false)
  %.sroa.24.0.extract.shift = lshr i64 %9, 32
  %10 = and i64 %9, 4294967295
  %11 = load ptr, ptr %7, align 8
  %12 = getelementptr inbounds %"struct.llvm::CGIOperandList::OperandInfo", ptr %11, i64 %10, i32 8
  %13 = lshr i64 %9, 38
  %14 = load ptr, ptr %12, align 8
  %15 = getelementptr inbounds i64, ptr %14, i64 %13
  %16 = and i64 %.sroa.24.0.extract.shift, 63
  %17 = shl nuw i64 1, %16
  %18 = load i64, ptr %15, align 8
  %19 = or i64 %18, %17
  store i64 %19, ptr %15, align 8
  call void @_ZN4llvm8getTokenENS_9StringRefES0_(ptr dead_on_unwind nonnull writable sret(%"struct.std::pair.57") align 8 %4, ptr %.sroa.012.0.copyload, i64 %.sroa.313.0.copyload, ptr nonnull @.str.51, i64 3) #15
  %.sroa.3.0.copyload = load i64, ptr %.sroa.3.0..sroa_idx, align 8
  %20 = icmp eq i64 %.sroa.3.0.copyload, 0
  br i1 %20, label %._crit_edge, label %8, !llvm.loop !83

._crit_edge:                                      ; preds = %8, %3
  ret void
}